target datalayout = "e-m:e-p270:32:32-p271:32:32-p272:64:64-i64:64-i128:128-f80:128-n8:16:32:64-S128"
target triple = "x86_64-pc-linux-gnu"

%struct.jpeg_common_struct = type { ptr, ptr, ptr, ptr, i32, i32 }
%struct.jpeg_error_mgr = type { ptr, ptr, ptr, ptr, ptr, i32, %union.anon, i32, i64, ptr, i32, ptr, i32, i32 }
%union.anon = type { [8 x i32], [48 x i8] }
%struct.my_memory_mgr = type { %struct.jpeg_memory_mgr, [2 x ptr], [2 x ptr], ptr, ptr, i64, i32 }
%struct.jpeg_memory_mgr = type { ptr, ptr, ptr, ptr, ptr, ptr, ptr, ptr, ptr, ptr, ptr, i64, i64 }
%struct.small_pool_struct = type { ptr, i64, i64 }
%struct.large_pool_struct = type { ptr, i64, i64 }
%struct.jvirt_sarray_control = type { ptr, i32, i32, i32, i32, i32, i32, i32, i32, i32, i32, ptr, %struct.backing_store_struct }
%struct.backing_store_struct = type { ptr, ptr, ptr, ptr, [64 x i8] }
%struct.jvirt_barray_control = type { ptr, i32, i32, i32, i32, i32, i32, i32, i32, i32, i32, ptr, %struct.backing_store_struct }

; Function Attrs: nounwind uwtable
define internal void @free_pool(ptr noundef %0, i32 noundef %1) #0 {
  %3 = alloca ptr, align 8
  %4 = alloca i32, align 4
  %5 = alloca ptr, align 8
  %6 = alloca ptr, align 8
  %7 = alloca ptr, align 8
  %8 = alloca i64, align 8
  %9 = alloca ptr, align 8
  %10 = alloca ptr, align 8
  %11 = alloca ptr, align 8
  %12 = alloca ptr, align 8
  store ptr %0, ptr %3, align 8, !tbaa !3
  store i32 %1, ptr %4, align 4, !tbaa !40
  call void @llvm.lifetime.start.p0(i64 8, ptr %5) #8
  %13 = load ptr, ptr %3, align 8, !tbaa !3
  %14 = getelementptr inbounds nuw %struct.jpeg_common_struct, ptr %13, i32 0, i32 1
  %15 = load ptr, ptr %14, align 8, !tbaa !8
  store ptr %15, ptr %5, align 8, !tbaa !21
  call void @llvm.lifetime.start.p0(i64 8, ptr %6) #8
  call void @llvm.lifetime.start.p0(i64 8, ptr %7) #8
  call void @llvm.lifetime.start.p0(i64 8, ptr %8) #8
  %16 = load i32, ptr %4, align 4, !tbaa !40
  %17 = icmp slt i32 %16, 0
  br i1 %17, label %21, label %18

18:                                               ; preds = %2
  %19 = load i32, ptr %4, align 4, !tbaa !40
  %20 = icmp sge i32 %19, 2
  br i1 %20, label %21, label %38

21:                                               ; preds = %18, %2
  %22 = load ptr, ptr %3, align 8, !tbaa !3
  %23 = getelementptr inbounds nuw %struct.jpeg_common_struct, ptr %22, i32 0, i32 0
  %24 = load ptr, ptr %23, align 8, !tbaa !16
  %25 = getelementptr inbounds nuw %struct.jpeg_error_mgr, ptr %24, i32 0, i32 5
  store i32 14, ptr %25, align 8, !tbaa !17
  %26 = load i32, ptr %4, align 4, !tbaa !40
  %27 = load ptr, ptr %3, align 8, !tbaa !3
  %28 = getelementptr inbounds nuw %struct.jpeg_common_struct, ptr %27, i32 0, i32 0
  %29 = load ptr, ptr %28, align 8, !tbaa !16
  %30 = getelementptr inbounds nuw %struct.jpeg_error_mgr, ptr %29, i32 0, i32 6
  %31 = getelementptr inbounds [8 x i32], ptr %30, i64 0, i64 0
  store i32 %26, ptr %31, align 4, !tbaa !22
  %32 = load ptr, ptr %3, align 8, !tbaa !3
  %33 = getelementptr inbounds nuw %struct.jpeg_common_struct, ptr %32, i32 0, i32 0
  %34 = load ptr, ptr %33, align 8, !tbaa !16
  %35 = getelementptr inbounds nuw %struct.jpeg_error_mgr, ptr %34, i32 0, i32 0
  %36 = load ptr, ptr %35, align 8, !tbaa !20
  %37 = load ptr, ptr %3, align 8, !tbaa !3
  call void %36(ptr noundef %37)
  br label %38

38:                                               ; preds = %21, %18
  %39 = load i32, ptr %4, align 4, !tbaa !40
  %40 = icmp eq i32 %39, 1
  br i1 %40, label %41, label %100

41:                                               ; preds = %38
  call void @llvm.lifetime.start.p0(i64 8, ptr %9) #8
  call void @llvm.lifetime.start.p0(i64 8, ptr %10) #8
  %42 = load ptr, ptr %5, align 8, !tbaa !21
  %43 = getelementptr inbounds nuw %struct.my_memory_mgr, ptr %42, i32 0, i32 3
  %44 = load ptr, ptr %43, align 8, !tbaa !47
  store ptr %44, ptr %9, align 8, !tbaa !106
  br label %45

45:                                               ; preds = %64, %41
  %46 = load ptr, ptr %9, align 8, !tbaa !106
  %47 = icmp ne ptr %46, null
  br i1 %47, label %48, label %68

48:                                               ; preds = %45
  %49 = load ptr, ptr %9, align 8, !tbaa !106
  %50 = getelementptr inbounds nuw %struct.jvirt_sarray_control, ptr %49, i32 0, i32 10
  %51 = load i32, ptr %50, align 4, !tbaa !115
  %52 = icmp ne i32 %51, 0
  br i1 %52, label %53, label %63

53:                                               ; preds = %48
  %54 = load ptr, ptr %9, align 8, !tbaa !106
  %55 = getelementptr inbounds nuw %struct.jvirt_sarray_control, ptr %54, i32 0, i32 10
  store i32 0, ptr %55, align 4, !tbaa !115
  %56 = load ptr, ptr %9, align 8, !tbaa !106
  %57 = getelementptr inbounds nuw %struct.jvirt_sarray_control, ptr %56, i32 0, i32 12
  %58 = getelementptr inbounds nuw %struct.backing_store_struct, ptr %57, i32 0, i32 2
  %59 = load ptr, ptr %58, align 8, !tbaa !142
  %60 = load ptr, ptr %3, align 8, !tbaa !3
  %61 = load ptr, ptr %9, align 8, !tbaa !106
  %62 = getelementptr inbounds nuw %struct.jvirt_sarray_control, ptr %61, i32 0, i32 12
  call void %59(ptr noundef %60, ptr noundef %62)
  br label %63

63:                                               ; preds = %53, %48
  br label %64

64:                                               ; preds = %63
  %65 = load ptr, ptr %9, align 8, !tbaa !106
  %66 = getelementptr inbounds nuw %struct.jvirt_sarray_control, ptr %65, i32 0, i32 11
  %67 = load ptr, ptr %66, align 8, !tbaa !116
  store ptr %67, ptr %9, align 8, !tbaa !106
  br label %45, !llvm.loop !143

68:                                               ; preds = %45
  %69 = load ptr, ptr %5, align 8, !tbaa !21
  %70 = getelementptr inbounds nuw %struct.my_memory_mgr, ptr %69, i32 0, i32 3
  store ptr null, ptr %70, align 8, !tbaa !47
  %71 = load ptr, ptr %5, align 8, !tbaa !21
  %72 = getelementptr inbounds nuw %struct.my_memory_mgr, ptr %71, i32 0, i32 4
  %73 = load ptr, ptr %72, align 8, !tbaa !48
  store ptr %73, ptr %10, align 8, !tbaa !117
  br label %74

74:                                               ; preds = %93, %68
  %75 = load ptr, ptr %10, align 8, !tbaa !117
  %76 = icmp ne ptr %75, null
  br i1 %76, label %77, label %97

77:                                               ; preds = %74
  %78 = load ptr, ptr %10, align 8, !tbaa !117
  %79 = getelementptr inbounds nuw %struct.jvirt_barray_control, ptr %78, i32 0, i32 10
  %80 = load i32, ptr %79, align 4, !tbaa !124
  %81 = icmp ne i32 %80, 0
  br i1 %81, label %82, label %92

82:                                               ; preds = %77
  %83 = load ptr, ptr %10, align 8, !tbaa !117
  %84 = getelementptr inbounds nuw %struct.jvirt_barray_control, ptr %83, i32 0, i32 10
  store i32 0, ptr %84, align 4, !tbaa !124
  %85 = load ptr, ptr %10, align 8, !tbaa !117
  %86 = getelementptr inbounds nuw %struct.jvirt_barray_control, ptr %85, i32 0, i32 12
  %87 = getelementptr inbounds nuw %struct.backing_store_struct, ptr %86, i32 0, i32 2
  %88 = load ptr, ptr %87, align 8, !tbaa !144
  %89 = load ptr, ptr %3, align 8, !tbaa !3
  %90 = load ptr, ptr %10, align 8, !tbaa !117
  %91 = getelementptr inbounds nuw %struct.jvirt_barray_control, ptr %90, i32 0, i32 12
  call void %88(ptr noundef %89, ptr noundef %91)
  br label %92

92:                                               ; preds = %82, %77
  br label %93

93:                                               ; preds = %92
  %94 = load ptr, ptr %10, align 8, !tbaa !117
  %95 = getelementptr inbounds nuw %struct.jvirt_barray_control, ptr %94, i32 0, i32 11
  %96 = load ptr, ptr %95, align 8, !tbaa !125
  store ptr %96, ptr %10, align 8, !tbaa !117
  br label %74, !llvm.loop !145

97:                                               ; preds = %74
  %98 = load ptr, ptr %5, align 8, !tbaa !21
  %99 = getelementptr inbounds nuw %struct.my_memory_mgr, ptr %98, i32 0, i32 4
  store ptr null, ptr %99, align 8, !tbaa !48
  call void @llvm.lifetime.end.p0(i64 8, ptr %10) #8
  call void @llvm.lifetime.end.p0(i64 8, ptr %9) #8
  br label %100

100:                                              ; preds = %97, %38
  %101 = load ptr, ptr %5, align 8, !tbaa !21
  %102 = getelementptr inbounds nuw %struct.my_memory_mgr, ptr %101, i32 0, i32 2
  %103 = load i32, ptr %4, align 4, !tbaa !40
  %104 = sext i32 %103 to i64
  %105 = getelementptr inbounds [2 x ptr], ptr %102, i64 0, i64 %104
  %106 = load ptr, ptr %105, align 8, !tbaa !43
  store ptr %106, ptr %7, align 8, !tbaa !43
  %107 = load ptr, ptr %5, align 8, !tbaa !21
  %108 = getelementptr inbounds nuw %struct.my_memory_mgr, ptr %107, i32 0, i32 2
  %109 = load i32, ptr %4, align 4, !tbaa !40
  %110 = sext i32 %109 to i64
  %111 = getelementptr inbounds [2 x ptr], ptr %108, i64 0, i64 %110
  store ptr null, ptr %111, align 8, !tbaa !43
  br label %112

112:                                              ; preds = %115, %100
  %113 = load ptr, ptr %7, align 8, !tbaa !43
  %114 = icmp ne ptr %113, null
  br i1 %114, label %115, label %138

115:                                              ; preds = %112
  call void @llvm.lifetime.start.p0(i64 8, ptr %11) #8
  %116 = load ptr, ptr %7, align 8, !tbaa !43
  %117 = getelementptr inbounds nuw %struct.large_pool_struct, ptr %116, i32 0, i32 0
  %118 = load ptr, ptr %117, align 8, !tbaa !57
  store ptr %118, ptr %11, align 8, !tbaa !43
  %119 = load ptr, ptr %7, align 8, !tbaa !43
  %120 = getelementptr inbounds nuw %struct.large_pool_struct, ptr %119, i32 0, i32 1
  %121 = load i64, ptr %120, align 8, !tbaa !59
  %122 = load ptr, ptr %7, align 8, !tbaa !43
  %123 = getelementptr inbounds nuw %struct.large_pool_struct, ptr %122, i32 0, i32 2
  %124 = load i64, ptr %123, align 8, !tbaa !60
  %125 = add i64 %121, %124
  %126 = add i64 %125, 24
  %127 = add i64 %126, 32
  %128 = sub i64 %127, 1
  store i64 %128, ptr %8, align 8, !tbaa !14
  %129 = load ptr, ptr %3, align 8, !tbaa !3
  %130 = load ptr, ptr %7, align 8, !tbaa !43
  %131 = load i64, ptr %8, align 8, !tbaa !14
  call void @jpeg_free_large(ptr noundef %129, ptr noundef %130, i64 noundef %131)
  %132 = load i64, ptr %8, align 8, !tbaa !14
  %133 = load ptr, ptr %5, align 8, !tbaa !21
  %134 = getelementptr inbounds nuw %struct.my_memory_mgr, ptr %133, i32 0, i32 5
  %135 = load i64, ptr %134, align 8, !tbaa !49
  %136 = sub i64 %135, %132
  store i64 %136, ptr %134, align 8, !tbaa !49
  %137 = load ptr, ptr %11, align 8, !tbaa !43
  store ptr %137, ptr %7, align 8, !tbaa !43
  call void @llvm.lifetime.end.p0(i64 8, ptr %11) #8
  br label %112, !llvm.loop !146

138:                                              ; preds = %112
  %139 = load ptr, ptr %5, align 8, !tbaa !21
  %140 = getelementptr inbounds nuw %struct.my_memory_mgr, ptr %139, i32 0, i32 1
  %141 = load i32, ptr %4, align 4, !tbaa !40
  %142 = sext i32 %141 to i64
  %143 = getelementptr inbounds [2 x ptr], ptr %140, i64 0, i64 %142
  %144 = load ptr, ptr %143, align 8, !tbaa !41
  store ptr %144, ptr %6, align 8, !tbaa !41
  %145 = load ptr, ptr %5, align 8, !tbaa !21
  %146 = getelementptr inbounds nuw %struct.my_memory_mgr, ptr %145, i32 0, i32 1
  %147 = load i32, ptr %4, align 4, !tbaa !40
  %148 = sext i32 %147 to i64
  %149 = getelementptr inbounds [2 x ptr], ptr %146, i64 0, i64 %148
  store ptr null, ptr %149, align 8, !tbaa !41
  br label %150

150:                                              ; preds = %153, %138
  %151 = load ptr, ptr %6, align 8, !tbaa !41
  %152 = icmp ne ptr %151, null
  br i1 %152, label %153, label %176

153:                                              ; preds = %150
  call void @llvm.lifetime.start.p0(i64 8, ptr %12) #8
  %154 = load ptr, ptr %6, align 8, !tbaa !41
  %155 = getelementptr inbounds nuw %struct.small_pool_struct, ptr %154, i32 0, i32 0
  %156 = load ptr, ptr %155, align 8, !tbaa !52
  store ptr %156, ptr %12, align 8, !tbaa !41
  %157 = load ptr, ptr %6, align 8, !tbaa !41
  %158 = getelementptr inbounds nuw %struct.small_pool_struct, ptr %157, i32 0, i32 1
  %159 = load i64, ptr %158, align 8, !tbaa !54
  %160 = load ptr, ptr %6, align 8, !tbaa !41
  %161 = getelementptr inbounds nuw %struct.small_pool_struct, ptr %160, i32 0, i32 2
  %162 = load i64, ptr %161, align 8, !tbaa !50
  %163 = add i64 %159, %162
  %164 = add i64 %163, 24
  %165 = add i64 %164, 32
  %166 = sub i64 %165, 1
  store i64 %166, ptr %8, align 8, !tbaa !14
  %167 = load ptr, ptr %3, align 8, !tbaa !3
  %168 = load ptr, ptr %6, align 8, !tbaa !41
  %169 = load i64, ptr %8, align 8, !tbaa !14
  call void @jpeg_free_small(ptr noundef %167, ptr noundef %168, i64 noundef %169)
  %170 = load i64, ptr %8, align 8, !tbaa !14
  %171 = load ptr, ptr %5, align 8, !tbaa !21
  %172 = getelementptr inbounds nuw %struct.my_memory_mgr, ptr %171, i32 0, i32 5
  %173 = load i64, ptr %172, align 8, !tbaa !49
  %174 = sub i64 %173, %170
  store i64 %174, ptr %172, align 8, !tbaa !49
  %175 = load ptr, ptr %12, align 8, !tbaa !41
  store ptr %175, ptr %6, align 8, !tbaa !41
  call void @llvm.lifetime.end.p0(i64 8, ptr %12) #8
  br label %150, !llvm.loop !147

176:                                              ; preds = %150
  call void @llvm.lifetime.end.p0(i64 8, ptr %8) #8
  call void @llvm.lifetime.end.p0(i64 8, ptr %7) #8
  call void @llvm.lifetime.end.p0(i64 8, ptr %6) #8
  call void @llvm.lifetime.end.p0(i64 8, ptr %5) #8
  ret void
}