; Function Attrs: nounwind uwtable
define internal void @free_pool(ptr noundef %0, i32 noundef %1) #0 {
  %3 = getelementptr inbounds nuw i8, ptr %0, i64 8
  %4 = load ptr, ptr %3, align 8, !tbaa !3
  %or.cond = icmp ugt i32 %1, 1
  br i1 %or.cond, label %.thread, label %10

.thread:                                          ; preds = %2
  %5 = load ptr, ptr %0, align 8, !tbaa !14
  %6 = getelementptr inbounds nuw i8, ptr %5, i64 40
  store i32 14, ptr %6, align 8, !tbaa !15
  %7 = getelementptr inbounds nuw i8, ptr %5, i64 44
  store i32 %1, ptr %7, align 4, !tbaa !18
  %8 = load ptr, ptr %0, align 8, !tbaa !14
  %9 = load ptr, ptr %8, align 8, !tbaa !19
  tail call void %9(ptr noundef nonnull %0) #9
  br label %31

10:                                               ; preds = %2
  %11 = icmp eq i32 %1, 1
  br i1 %11, label %12, label %31

12:                                               ; preds = %10
  %13 = getelementptr inbounds nuw i8, ptr %4, i64 136
  %.05763 = load ptr, ptr %13, align 8, !tbaa !88
  %.not64 = icmp eq ptr %.05763, null
  br i1 %.not64, label %._crit_edge, label %.lr.ph

.lr.ph:                                           ; preds = %12, %20
  %.05765 = phi ptr [ %.057, %20 ], [ %.05763, %12 ]
  %14 = getelementptr inbounds nuw i8, ptr %.05765, i64 44
  %15 = load i32, ptr %14, align 4, !tbaa !75
  %.not62 = icmp eq i32 %15, 0
  br i1 %.not62, label %20, label %16

16:                                               ; preds = %.lr.ph
  store i32 0, ptr %14, align 4, !tbaa !75
  %17 = getelementptr inbounds nuw i8, ptr %.05765, i64 56
  %18 = getelementptr inbounds nuw i8, ptr %.05765, i64 72
  %19 = load ptr, ptr %18, align 8, !tbaa !109
  tail call void %19(ptr noundef %0, ptr noundef nonnull %17) #9
  br label %20

20:                                               ; preds = %.lr.ph, %16
  %21 = getelementptr inbounds nuw i8, ptr %.05765, i64 48
  %.057 = load ptr, ptr %21, align 8, !tbaa !88
  %.not = icmp eq ptr %.057, null
  br i1 %.not, label %._crit_edge, label %.lr.ph, !llvm.loop !110

._crit_edge:                                      ; preds = %20, %12
  store ptr null, ptr %13, align 8, !tbaa !76
  %22 = getelementptr inbounds nuw i8, ptr %4, i64 144
  %.05666 = load ptr, ptr %22, align 8, !tbaa !90
  %.not5867 = icmp eq ptr %.05666, null
  br i1 %.not5867, label %._crit_edge71, label %.lr.ph70

.lr.ph70:                                         ; preds = %._crit_edge, %29
  %.05668 = phi ptr [ %.056, %29 ], [ %.05666, %._crit_edge ]
  %23 = getelementptr inbounds nuw i8, ptr %.05668, i64 44
  %24 = load i32, ptr %23, align 4, !tbaa !85
  %.not61 = icmp eq i32 %24, 0
  br i1 %.not61, label %29, label %25

25:                                               ; preds = %.lr.ph70
  store i32 0, ptr %23, align 4, !tbaa !85
  %26 = getelementptr inbounds nuw i8, ptr %.05668, i64 56
  %27 = getelementptr inbounds nuw i8, ptr %.05668, i64 72
  %28 = load ptr, ptr %27, align 8, !tbaa !111
  tail call void %28(ptr noundef %0, ptr noundef nonnull %26) #9
  br label %29

29:                                               ; preds = %.lr.ph70, %25
  %30 = getelementptr inbounds nuw i8, ptr %.05668, i64 48
  %.056 = load ptr, ptr %30, align 8, !tbaa !90
  %.not58 = icmp eq ptr %.056, null
  br i1 %.not58, label %._crit_edge71, label %.lr.ph70, !llvm.loop !112

._crit_edge71:                                    ; preds = %29, %._crit_edge
  store ptr null, ptr %22, align 8, !tbaa !86
  br label %31

31:                                               ; preds = %.thread, %._crit_edge71, %10
  %32 = getelementptr inbounds nuw i8, ptr %4, i64 120
  %33 = sext i32 %1 to i64
  %34 = getelementptr inbounds [2 x ptr], ptr %32, i64 0, i64 %33
  %35 = load ptr, ptr %34, align 8, !tbaa !46
  store ptr null, ptr %34, align 8, !tbaa !46
  %.not5972 = icmp eq ptr %35, null
  br i1 %.not5972, label %._crit_edge76, label %.lr.ph75

.lr.ph75:                                         ; preds = %31
  %36 = getelementptr inbounds nuw i8, ptr %4, i64 152
  br label %37

37:                                               ; preds = %.lr.ph75, %37
  %.05573 = phi ptr [ %35, %.lr.ph75 ], [ %38, %37 ]
  %38 = load ptr, ptr %.05573, align 8, !tbaa !48
  %39 = getelementptr inbounds nuw i8, ptr %.05573, i64 8
  %40 = load i64, ptr %39, align 8, !tbaa !50
  %41 = getelementptr inbounds nuw i8, ptr %.05573, i64 16
  %42 = load i64, ptr %41, align 8, !tbaa !51
  %43 = add i64 %40, 55
  %44 = add i64 %43, %42
  tail call void @jpeg_free_large(ptr noundef %0, ptr noundef nonnull %.05573, i64 noundef %44) #9
  %45 = load i64, ptr %36, align 8, !tbaa !37
  %46 = sub i64 %45, %44
  store i64 %46, ptr %36, align 8, !tbaa !37
  %.not59 = icmp eq ptr %38, null
  br i1 %.not59, label %._crit_edge76, label %37, !llvm.loop !113

._crit_edge76:                                    ; preds = %37, %31
  %47 = getelementptr inbounds nuw i8, ptr %4, i64 104
  %48 = getelementptr inbounds [2 x ptr], ptr %47, i64 0, i64 %33
  %49 = load ptr, ptr %48, align 8, !tbaa !38
  store ptr null, ptr %48, align 8, !tbaa !38
  %.not6077 = icmp eq ptr %49, null
  br i1 %.not6077, label %._crit_edge81, label %.lr.ph80

.lr.ph80:                                         ; preds = %._crit_edge76
  %50 = getelementptr inbounds nuw i8, ptr %4, i64 152
  br label %51

51:                                               ; preds = %.lr.ph80, %51
  %.078 = phi ptr [ %49, %.lr.ph80 ], [ %52, %51 ]
  %52 = load ptr, ptr %.078, align 8, !tbaa !44
  %53 = getelementptr inbounds nuw i8, ptr %.078, i64 8
  %54 = load i64, ptr %53, align 8, !tbaa !45
  %55 = getelementptr inbounds nuw i8, ptr %.078, i64 16
  %56 = load i64, ptr %55, align 8, !tbaa !42
  %57 = add i64 %54, 55
  %58 = add i64 %57, %56
  tail call void @jpeg_free_small(ptr noundef %0, ptr noundef nonnull %.078, i64 noundef %58) #9
  %59 = load i64, ptr %50, align 8, !tbaa !37
  %60 = sub i64 %59, %58
  store i64 %60, ptr %50, align 8, !tbaa !37
  %.not60 = icmp eq ptr %52, null
  br i1 %.not60, label %._crit_edge81, label %51, !llvm.loop !114

._crit_edge81:                                    ; preds = %51, %._crit_edge76
  ret void
}